; Function Attrs: nounwind sspstrong uwtable
define dso_local i64 @rb_vsprintf(ptr noundef nonnull %0, ptr noundef %1) local_unnamed_addr #0 {
  %3 = tail call i64 @rb_str_buf_new(i64 noundef 120) #21
  %4 = inttoptr i64 %3 to ptr
  %5 = load i64, ptr %4, align 8, !tbaa !11, !noalias !140
  %6 = and i64 %5, 8192
  %.not.i.i.i = icmp eq i64 %6, 0
  %7 = getelementptr inbounds nuw i8, ptr %4, i64 24
  br i1 %.not.i.i.i, label %rb_enc_vsprintf.exit, label %8

8:                                                ; preds = %2
  %.sroa.2.0.copyload.i.i = load ptr, ptr %7, align 8
  br label %rb_enc_vsprintf.exit

rb_enc_vsprintf.exit:                             ; preds = %2, %8
  %.sroa.2.0.i.i = phi ptr [ %.sroa.2.0.copyload.i.i, %8 ], [ %7, %2 ]
  tail call fastcc void @ruby_vsprintf0(i64 noundef %3, ptr noundef %.sroa.2.0.i.i, ptr noundef nonnull %0, ptr noundef %1)
  ret i64 %3
}